target datalayout = "e-m:e-p270:32:32-p271:32:32-p272:64:64-i64:64-i128:128-f80:128-n8:16:32:64-S128"
target triple = "x86_64-pc-linux-gnu"

%struct.evp_cipher_ctx_st = type { ptr, ptr, i32, i32, [16 x i8], [16 x i8], [32 x i8], i32, ptr, i32, i32, i64, ptr, i32, i32, [32 x i8], i64, ptr, ptr }
%struct.evp_cipher_st = type { i32, i32, i32, i32, i64, i32, ptr, ptr, ptr, i32, ptr, ptr, ptr, ptr, i32, ptr, ptr, ptr, %struct.CRYPTO_REF_COUNT, ptr, ptr, ptr, ptr, ptr, ptr, ptr, ptr, ptr, ptr, ptr, ptr, ptr, ptr, ptr, ptr, ptr, ptr, ptr, ptr }
%struct.CRYPTO_REF_COUNT = type { i32 }

; Function Attrs: nounwind uwtable
define internal ptr @EVP_CIPHER_CTX_get_libctx(ptr noundef %0) #0 {
  %2 = alloca ptr, align 8
  %3 = alloca ptr, align 8
  %4 = alloca ptr, align 8
  %5 = alloca ptr, align 8
  %6 = alloca i32, align 4
  store ptr %0, ptr %3, align 8, !tbaa !3
  call void @llvm.lifetime.start.p0(i64 8, ptr %4) #9
  %7 = load ptr, ptr %3, align 8, !tbaa !3
  %8 = getelementptr inbounds nuw %struct.evp_cipher_ctx_st, ptr %7, i32 0, i32 0
  %9 = load ptr, ptr %8, align 8, !tbaa !8
  store ptr %9, ptr %4, align 8, !tbaa !27
  call void @llvm.lifetime.start.p0(i64 8, ptr %5) #9
  %10 = load ptr, ptr %4, align 8, !tbaa !27
  %11 = icmp eq ptr %10, null
  br i1 %11, label %12, label %13

12:                                               ; preds = %1
  store ptr null, ptr %2, align 8
  store i32 1, ptr %6, align 4
  br label %18

13:                                               ; preds = %1
  %14 = load ptr, ptr %4, align 8, !tbaa !27
  %15 = call ptr @EVP_CIPHER_get0_provider(ptr noundef %14)
  store ptr %15, ptr %5, align 8, !tbaa !96
  %16 = load ptr, ptr %5, align 8, !tbaa !96
  %17 = call ptr @ossl_provider_libctx(ptr noundef %16)
  store ptr %17, ptr %2, align 8
  store i32 1, ptr %6, align 4
  br label %18

18:                                               ; preds = %13, %12
  call void @llvm.lifetime.end.p0(i64 8, ptr %5) #9
  call void @llvm.lifetime.end.p0(i64 8, ptr %4) #9
  %19 = load ptr, ptr %2, align 8
  ret ptr %19
}

; Function Attrs: nounwind uwtable
define i32 @EVP_CIPHER_CTX_rand_key(ptr noundef %0, ptr noundef %1) #0 {
  %3 = alloca i32, align 4
  %4 = alloca ptr, align 8
  %5 = alloca ptr, align 8
  %6 = alloca i32, align 4
  %7 = alloca ptr, align 8
  %8 = alloca i32, align 4
  store ptr %0, ptr %4, align 8, !tbaa !3
  store ptr %1, ptr %5, align 8, !tbaa !32
  %9 = load ptr, ptr %4, align 8, !tbaa !3
  %10 = getelementptr inbounds nuw %struct.evp_cipher_ctx_st, ptr %9, i32 0, i32 0
  %11 = load ptr, ptr %10, align 8, !tbaa !8
  %12 = getelementptr inbounds nuw %struct.evp_cipher_st, ptr %11, i32 0, i32 4
  %13 = load i64, ptr %12, align 8, !tbaa !54
  %14 = and i64 %13, 512
  %15 = icmp ne i64 %14, 0
  br i1 %15, label %16, label %20

16:                                               ; preds = %2
  %17 = load ptr, ptr %4, align 8, !tbaa !3
  %18 = load ptr, ptr %5, align 8, !tbaa !32
  %19 = call i32 @EVP_CIPHER_CTX_ctrl(ptr noundef %17, i32 noundef 6, i32 noundef 0, ptr noundef %18)
  store i32 %19, ptr %3, align 4
  br label %37

20:                                               ; preds = %2
  call void @llvm.lifetime.start.p0(i64 4, ptr %6) #9
  call void @llvm.lifetime.start.p0(i64 8, ptr %7) #9
  %21 = load ptr, ptr %4, align 8, !tbaa !3
  %22 = call ptr @EVP_CIPHER_CTX_get_libctx(ptr noundef %21)
  store ptr %22, ptr %7, align 8, !tbaa !94
  %23 = load ptr, ptr %4, align 8, !tbaa !3
  %24 = call i32 @EVP_CIPHER_CTX_get_key_length(ptr noundef %23)
  store i32 %24, ptr %6, align 4, !tbaa !29
  %25 = load i32, ptr %6, align 4, !tbaa !29
  %26 = icmp sle i32 %25, 0
  br i1 %26, label %34, label %27

27:                                               ; preds = %20
  %28 = load ptr, ptr %7, align 8, !tbaa !94
  %29 = load ptr, ptr %5, align 8, !tbaa !32
  %30 = load i32, ptr %6, align 4, !tbaa !29
  %31 = sext i32 %30 to i64
  %32 = call i32 @RAND_priv_bytes_ex(ptr noundef %28, ptr noundef %29, i64 noundef %31, i32 noundef 0)
  %33 = icmp sle i32 %32, 0
  br i1 %33, label %34, label %35

34:                                               ; preds = %27, %20
  store i32 0, ptr %3, align 4
  store i32 1, ptr %8, align 4
  br label %36

35:                                               ; preds = %27
  store i32 1, ptr %3, align 4
  store i32 1, ptr %8, align 4
  br label %36

36:                                               ; preds = %35, %34
  call void @llvm.lifetime.end.p0(i64 8, ptr %7) #9
  call void @llvm.lifetime.end.p0(i64 4, ptr %6) #9
  br label %37

37:                                               ; preds = %36, %16
  %38 = load i32, ptr %3, align 4
  ret i32 %38
}