; Function Attrs: nounwind uwtable
define i32 @EVP_CIPHER_CTX_rand_key(ptr noundef %0, ptr noundef %1) local_unnamed_addr #0 {
  %3 = load ptr, ptr %0, align 8, !tbaa !3
  %4 = getelementptr inbounds nuw i8, ptr %3, i64 16
  %5 = load i64, ptr %4, align 8, !tbaa !53
  %6 = and i64 %5, 512
  %.not = icmp eq i64 %6, 0
  br i1 %.not, label %EVP_CIPHER_CTX_get_libctx.exit, label %7

7:                                                ; preds = %2
  %8 = tail call i32 @EVP_CIPHER_CTX_ctrl(ptr noundef nonnull %0, i32 noundef 6, i32 noundef 0, ptr noundef %1)
  br label %17

EVP_CIPHER_CTX_get_libctx.exit:                   ; preds = %2
  %9 = tail call ptr @EVP_CIPHER_get0_provider(ptr noundef nonnull %3) #10
  %10 = tail call ptr @ossl_provider_libctx(ptr noundef %9) #10
  %11 = tail call i32 @EVP_CIPHER_CTX_get_key_length(ptr noundef nonnull %0) #10
  %12 = icmp slt i32 %11, 1
  br i1 %12, label %17, label %13

13:                                               ; preds = %EVP_CIPHER_CTX_get_libctx.exit
  %14 = zext nneg i32 %11 to i64
  %15 = tail call i32 @RAND_priv_bytes_ex(ptr noundef %10, ptr noundef %1, i64 noundef %14, i32 noundef 0) #10
  %16 = icmp sgt i32 %15, 0
  %spec.select = zext i1 %16 to i32
  br label %17

17:                                               ; preds = %13, %EVP_CIPHER_CTX_get_libctx.exit, %7
  %.0 = phi i32 [ %8, %7 ], [ 0, %EVP_CIPHER_CTX_get_libctx.exit ], [ %spec.select, %13 ]
  ret i32 %.0
}